target datalayout = "e-m:e-p270:32:32-p271:32:32-p272:64:64-i64:64-i128:128-f80:128-n8:16:32:64-S128"
target triple = "x86_64-pc-linux-gnu"

%"struct.cv::MatSize" = type { ptr }

; Function Attrs: inlinehint mustprogress nounwind uwtable
define linkonce_odr hidden noundef i32 @_ZNK2cv7MatSize4dimsEv(ptr noundef nonnull align 8 dereferenceable(8) %0) #6 comdat align 2 {
  %2 = alloca ptr, align 8
  store ptr %0, ptr %2, align 8, !tbaa !65
  %3 = load ptr, ptr %2, align 8
  %4 = getelementptr inbounds nuw %"struct.cv::MatSize", ptr %3, i32 0, i32 0
  %5 = load ptr, ptr %4, align 8, !tbaa !67
  %6 = getelementptr inbounds i32, ptr %5, i64 -1
  %7 = getelementptr inbounds i32, ptr %6, i64 0
  %8 = load i32, ptr %7, align 4, !tbaa !26
  ret i32 %8
}

; Function Attrs: mustprogress nounwind uwtable
define noundef zeroext i1 @_ZNK2cv7MatSizeeqERKS0_(ptr noundef nonnull align 8 dereferenceable(8) %0, ptr noundef nonnull align 8 dereferenceable(8) %1) #0 align 2 {
  %3 = alloca i1, align 1
  %4 = alloca ptr, align 8
  %5 = alloca ptr, align 8
  %6 = alloca i32, align 4
  %7 = alloca i32, align 4
  %8 = alloca i32, align 4
  %9 = alloca i32, align 4
  store ptr %0, ptr %4, align 8, !tbaa !65
  store ptr %1, ptr %5, align 8, !tbaa !65
  %10 = load ptr, ptr %4, align 8
  call void @llvm.lifetime.start.p0(i64 4, ptr %6) #7
  %11 = call noundef i32 @_ZNK2cv7MatSize4dimsEv(ptr noundef nonnull align 8 dereferenceable(8) %10) #7
  store i32 %11, ptr %6, align 4, !tbaa !26
  call void @llvm.lifetime.start.p0(i64 4, ptr %7) #7
  %12 = load ptr, ptr %5, align 8, !tbaa !65
  %13 = call noundef i32 @_ZNK2cv7MatSize4dimsEv(ptr noundef nonnull align 8 dereferenceable(8) %12) #7
  store i32 %13, ptr %7, align 4, !tbaa !26
  %14 = load i32, ptr %6, align 4, !tbaa !26
  %15 = load i32, ptr %7, align 4, !tbaa !26
  %16 = icmp ne i32 %14, %15
  br i1 %16, label %17, label %18

17:                                               ; preds = %2
  store i1 false, ptr %3, align 1
  store i32 1, ptr %8, align 4
  br label %74

18:                                               ; preds = %2
  %19 = load i32, ptr %6, align 4, !tbaa !26
  %20 = icmp eq i32 %19, 2
  br i1 %20, label %21, label %45

21:                                               ; preds = %18
  %22 = getelementptr inbounds nuw %"struct.cv::MatSize", ptr %10, i32 0, i32 0
  %23 = load ptr, ptr %22, align 8, !tbaa !67
  %24 = getelementptr inbounds i32, ptr %23, i64 0
  %25 = load i32, ptr %24, align 4, !tbaa !26
  %26 = load ptr, ptr %5, align 8, !tbaa !65
  %27 = getelementptr inbounds nuw %"struct.cv::MatSize", ptr %26, i32 0, i32 0
  %28 = load ptr, ptr %27, align 8, !tbaa !67
  %29 = getelementptr inbounds i32, ptr %28, i64 0
  %30 = load i32, ptr %29, align 4, !tbaa !26
  %31 = icmp eq i32 %25, %30
  br i1 %31, label %32, label %43

32:                                               ; preds = %21
  %33 = getelementptr inbounds nuw %"struct.cv::MatSize", ptr %10, i32 0, i32 0
  %34 = load ptr, ptr %33, align 8, !tbaa !67
  %35 = getelementptr inbounds i32, ptr %34, i64 1
  %36 = load i32, ptr %35, align 4, !tbaa !26
  %37 = load ptr, ptr %5, align 8, !tbaa !65
  %38 = getelementptr inbounds nuw %"struct.cv::MatSize", ptr %37, i32 0, i32 0
  %39 = load ptr, ptr %38, align 8, !tbaa !67
  %40 = getelementptr inbounds i32, ptr %39, i64 1
  %41 = load i32, ptr %40, align 4, !tbaa !26
  %42 = icmp eq i32 %36, %41
  br label %43

43:                                               ; preds = %32, %21
  %44 = phi i1 [ false, %21 ], [ %42, %32 ]
  store i1 %44, ptr %3, align 1
  store i32 1, ptr %8, align 4
  br label %74

45:                                               ; preds = %18
  call void @llvm.lifetime.start.p0(i64 4, ptr %9) #7
  store i32 0, ptr %9, align 4, !tbaa !26
  br label %46

46:                                               ; preds = %68, %45
  %47 = load i32, ptr %9, align 4, !tbaa !26
  %48 = load i32, ptr %6, align 4, !tbaa !26
  %49 = icmp slt i32 %47, %48
  br i1 %49, label %51, label %50

50:                                               ; preds = %46
  store i32 2, ptr %8, align 4
  br label %71

51:                                               ; preds = %46
  %52 = getelementptr inbounds nuw %"struct.cv::MatSize", ptr %10, i32 0, i32 0
  %53 = load ptr, ptr %52, align 8, !tbaa !67
  %54 = load i32, ptr %9, align 4, !tbaa !26
  %55 = sext i32 %54 to i64
  %56 = getelementptr inbounds i32, ptr %53, i64 %55
  %57 = load i32, ptr %56, align 4, !tbaa !26
  %58 = load ptr, ptr %5, align 8, !tbaa !65
  %59 = getelementptr inbounds nuw %"struct.cv::MatSize", ptr %58, i32 0, i32 0
  %60 = load ptr, ptr %59, align 8, !tbaa !67
  %61 = load i32, ptr %9, align 4, !tbaa !26
  %62 = sext i32 %61 to i64
  %63 = getelementptr inbounds i32, ptr %60, i64 %62
  %64 = load i32, ptr %63, align 4, !tbaa !26
  %65 = icmp ne i32 %57, %64
  br i1 %65, label %66, label %67

66:                                               ; preds = %51
  store i1 false, ptr %3, align 1
  store i32 1, ptr %8, align 4
  br label %71

67:                                               ; preds = %51
  br label %68

68:                                               ; preds = %67
  %69 = load i32, ptr %9, align 4, !tbaa !26
  %70 = add nsw i32 %69, 1
  store i32 %70, ptr %9, align 4, !tbaa !26
  br label %46, !llvm.loop !70

71:                                               ; preds = %66, %50
  call void @llvm.lifetime.end.p0(i64 4, ptr %9) #7
  %72 = load i32, ptr %8, align 4
  switch i32 %72, label %74 [
    i32 2, label %73
  ]

73:                                               ; preds = %71
  store i1 true, ptr %3, align 1
  store i32 1, ptr %8, align 4
  br label %74

74:                                               ; preds = %73, %71, %43, %17
  call void @llvm.lifetime.end.p0(i64 4, ptr %7) #7
  call void @llvm.lifetime.end.p0(i64 4, ptr %6) #7
  %75 = load i1, ptr %3, align 1
  ret i1 %75
}