; Function Attrs: mustprogress nofree norecurse nosync nounwind willreturn memory(read, inaccessiblemem: none) uwtable
define noundef zeroext i1 @_ZNK2cv7MatSizeeqERKS0_(ptr noundef nonnull readonly align 8 captures(none) dereferenceable(8) %0, ptr noundef nonnull readonly align 8 captures(none) dereferenceable(8) %1) local_unnamed_addr #13 align 2 {
  %3 = load ptr, ptr %0, align 8, !tbaa !49
  %4 = getelementptr inbounds i8, ptr %3, i64 -4
  %5 = load i32, ptr %4, align 4, !tbaa !23
  %6 = load ptr, ptr %1, align 8, !tbaa !49
  %7 = getelementptr inbounds i8, ptr %6, i64 -4
  %8 = load i32, ptr %7, align 4, !tbaa !23
  %.not = icmp eq i32 %5, %8
  br i1 %.not, label %9, label %.loopexit

9:                                                ; preds = %2
  %10 = icmp eq i32 %5, 2
  br i1 %10, label %11, label %.preheader

.preheader:                                       ; preds = %9
  %.not1819 = icmp slt i32 %5, 1
  br i1 %.not1819, label %.loopexit, label %.lr.ph.preheader

.lr.ph.preheader:                                 ; preds = %.preheader
  %wide.trip.count = zext nneg i32 %5 to i64
  br label %.lr.ph

11:                                               ; preds = %9
  %12 = load i32, ptr %3, align 4, !tbaa !23
  %13 = load i32, ptr %6, align 4, !tbaa !23
  %14 = icmp eq i32 %12, %13
  br i1 %14, label %15, label %.loopexit

15:                                               ; preds = %11
  %16 = getelementptr inbounds nuw i8, ptr %3, i64 4
  %17 = load i32, ptr %16, align 4, !tbaa !23
  %18 = getelementptr inbounds nuw i8, ptr %6, i64 4
  %19 = load i32, ptr %18, align 4, !tbaa !23
  %20 = icmp eq i32 %17, %19
  br label %.loopexit

.lr.ph:                                           ; preds = %.lr.ph, %.lr.ph.preheader
  %indvars.iv = phi i64 [ 0, %.lr.ph.preheader ], [ %indvars.iv.next, %.lr.ph ]
  %21 = getelementptr inbounds nuw i32, ptr %3, i64 %indvars.iv
  %22 = load i32, ptr %21, align 4, !tbaa !23
  %23 = getelementptr inbounds nuw i32, ptr %6, i64 %indvars.iv
  %24 = load i32, ptr %23, align 4, !tbaa !23
  %.not17 = icmp eq i32 %22, %24
  %indvars.iv.next = add nuw nsw i64 %indvars.iv, 1
  %exitcond.not = icmp ne i64 %indvars.iv.next, %wide.trip.count
  %or.cond.not = select i1 %.not17, i1 %exitcond.not, i1 false
  br i1 %or.cond.not, label %.lr.ph, label %.loopexit, !llvm.loop !52

.loopexit:                                        ; preds = %.lr.ph, %.preheader, %11, %15, %2
  %.015 = phi i1 [ false, %2 ], [ false, %11 ], [ %20, %15 ], [ true, %.preheader ], [ %.not17, %.lr.ph ]
  ret i1 %.015
}